(dp1
S'asignatura'
p2
(dp3
S'length'
p4
I50
sS'unique'
p5
I00
sS'sortable'
p6
I3
sS'sql'
p7
S'VARCHAR(50) NOT NULL'
p8
sS'notnull'
p9
I01
sS'type'
p10
S'string'
p11
ssS'id'
p12
(dp13
g4
I255
sg5
I00
sg6
I1
sg7
S'INT AUTO_INCREMENT NOT NULL'
p14
sg9
I00
sg10
g12
ssS'abreviatura'
p15
(dp16
g4
I10
sg5
I00
sg6
I2
sg7
S'VARCHAR(10) NOT NULL'
p17
sg9
I01
sg10
g11
ss.